target datalayout = "e-m:e-p270:32:32-p271:32:32-p272:64:64-i64:64-i128:128-f80:128-n8:16:32:64-S128"
target triple = "x86_64-unknown-linux-gnu"

%"class.rocksdb::Arena" = type { %"class.rocksdb::Allocator", [8 x i8], [2048 x i8], i64, %"class.std::deque", %"class.std::deque.0", i64, ptr, ptr, i64, i64, i64, ptr }
%"class.rocksdb::Allocator" = type { ptr }
%"class.std::deque" = type { %"class.std::_Deque_base" }
%"class.std::_Deque_base" = type { %"struct.std::_Deque_base<std::unique_ptr<char[]>, std::allocator<std::unique_ptr<char[]>>>::_Deque_impl" }
%"struct.std::_Deque_base<std::unique_ptr<char[]>, std::allocator<std::unique_ptr<char[]>>>::_Deque_impl" = type { %"struct.std::_Deque_base<std::unique_ptr<char[]>, std::allocator<std::unique_ptr<char[]>>>::_Deque_impl_data" }
%"struct.std::_Deque_base<std::unique_ptr<char[]>, std::allocator<std::unique_ptr<char[]>>>::_Deque_impl_data" = type { ptr, i64, %"struct.std::_Deque_iterator", %"struct.std::_Deque_iterator" }
%"struct.std::_Deque_iterator" = type { ptr, ptr, ptr, ptr }
%"class.std::deque.0" = type { %"class.std::_Deque_base.1" }
%"class.std::_Deque_base.1" = type { %"struct.std::_Deque_base<rocksdb::MemMapping, std::allocator<rocksdb::MemMapping>>::_Deque_impl" }
%"struct.std::_Deque_base<rocksdb::MemMapping, std::allocator<rocksdb::MemMapping>>::_Deque_impl" = type { %"struct.std::_Deque_base<rocksdb::MemMapping, std::allocator<rocksdb::MemMapping>>::_Deque_impl_data" }
%"struct.std::_Deque_base<rocksdb::MemMapping, std::allocator<rocksdb::MemMapping>>::_Deque_impl_data" = type { ptr, i64, %"struct.std::_Deque_iterator.5", %"struct.std::_Deque_iterator.5" }
%"struct.std::_Deque_iterator.5" = type { ptr, ptr, ptr, ptr }

; Function Attrs: mustprogress uwtable
define noundef ptr @_ZN7rocksdb5Arena16AllocateFallbackEmb(ptr noundef nonnull align 16 dereferenceable(2288) %this, i64 noundef %bytes, i1 noundef zeroext %aligned) #0 align 2 {
entry:
  %retval = alloca ptr, align 8
  %this.addr = alloca ptr, align 8
  %bytes.addr = alloca i64, align 8
  %aligned.addr = alloca i8, align 1
  %size = alloca i64, align 8
  %block_head = alloca ptr, align 8
  store ptr %this, ptr %this.addr, align 8
  store i64 %bytes, ptr %bytes.addr, align 8
  %frombool = zext i1 %aligned to i8
  store i8 %frombool, ptr %aligned.addr, align 1
  %this1 = load ptr, ptr %this.addr, align 8
  %0 = load i64, ptr %bytes.addr, align 8
  %kBlockSize = getelementptr inbounds %"class.rocksdb::Arena", ptr %this1, i32 0, i32 3
  %1 = load i64, ptr %kBlockSize, align 16
  %div = udiv i64 %1, 4
  %cmp = icmp ugt i64 %0, %div
  br i1 %cmp, label %if.then, label %if.end

if.then:                                          ; preds = %entry
  %irregular_block_num = getelementptr inbounds %"class.rocksdb::Arena", ptr %this1, i32 0, i32 6
  %2 = load i64, ptr %irregular_block_num, align 8
  %inc = add i64 %2, 1
  store i64 %inc, ptr %irregular_block_num, align 8
  %3 = load i64, ptr %bytes.addr, align 8
  %call = call noundef ptr @_ZN7rocksdb5Arena16AllocateNewBlockEm(ptr noundef nonnull align 16 dereferenceable(2288) %this1, i64 noundef %3)
  store ptr %call, ptr %retval, align 8
  br label %return

if.end:                                           ; preds = %entry
  store i64 0, ptr %size, align 8
  store ptr null, ptr %block_head, align 8
  %hugetlb_size_ = getelementptr inbounds %"class.rocksdb::Arena", ptr %this1, i32 0, i32 10
  %4 = load i64, ptr %hugetlb_size_, align 8
  %cmp2 = icmp ugt i64 %4, 0
  br i1 %cmp2, label %if.then3, label %if.end6

if.then3:                                         ; preds = %if.end
  %hugetlb_size_4 = getelementptr inbounds %"class.rocksdb::Arena", ptr %this1, i32 0, i32 10
  %5 = load i64, ptr %hugetlb_size_4, align 8
  store i64 %5, ptr %size, align 8
  %6 = load i64, ptr %size, align 8
  %call5 = call noundef ptr @_ZN7rocksdb5Arena20AllocateFromHugePageEm(ptr noundef nonnull align 16 dereferenceable(2288) %this1, i64 noundef %6)
  store ptr %call5, ptr %block_head, align 8
  br label %if.end6

if.end6:                                          ; preds = %if.then3, %if.end
  %7 = load ptr, ptr %block_head, align 8
  %tobool = icmp ne ptr %7, null
  br i1 %tobool, label %if.end10, label %if.then7

if.then7:                                         ; preds = %if.end6
  %kBlockSize8 = getelementptr inbounds %"class.rocksdb::Arena", ptr %this1, i32 0, i32 3
  %8 = load i64, ptr %kBlockSize8, align 16
  store i64 %8, ptr %size, align 8
  %9 = load i64, ptr %size, align 8
  %call9 = call noundef ptr @_ZN7rocksdb5Arena16AllocateNewBlockEm(ptr noundef nonnull align 16 dereferenceable(2288) %this1, i64 noundef %9)
  store ptr %call9, ptr %block_head, align 8
  br label %if.end10

if.end10:                                         ; preds = %if.then7, %if.end6
  %10 = load i64, ptr %size, align 8
  %11 = load i64, ptr %bytes.addr, align 8
  %sub = sub i64 %10, %11
  %alloc_bytes_remaining_ = getelementptr inbounds %"class.rocksdb::Arena", ptr %this1, i32 0, i32 9
  store i64 %sub, ptr %alloc_bytes_remaining_, align 16
  %12 = load i8, ptr %aligned.addr, align 1
  %tobool11 = trunc i8 %12 to i1
  br i1 %tobool11, label %if.then12, label %if.else

if.then12:                                        ; preds = %if.end10
  %13 = load ptr, ptr %block_head, align 8
  %14 = load i64, ptr %bytes.addr, align 8
  %add.ptr = getelementptr inbounds i8, ptr %13, i64 %14
  %aligned_alloc_ptr_ = getelementptr inbounds %"class.rocksdb::Arena", ptr %this1, i32 0, i32 8
  store ptr %add.ptr, ptr %aligned_alloc_ptr_, align 8
  %15 = load ptr, ptr %block_head, align 8
  %16 = load i64, ptr %size, align 8
  %add.ptr13 = getelementptr inbounds i8, ptr %15, i64 %16
  %unaligned_alloc_ptr_ = getelementptr inbounds %"class.rocksdb::Arena", ptr %this1, i32 0, i32 7
  store ptr %add.ptr13, ptr %unaligned_alloc_ptr_, align 16
  %17 = load ptr, ptr %block_head, align 8
  store ptr %17, ptr %retval, align 8
  br label %return

if.else:                                          ; preds = %if.end10
  %18 = load ptr, ptr %block_head, align 8
  %aligned_alloc_ptr_14 = getelementptr inbounds %"class.rocksdb::Arena", ptr %this1, i32 0, i32 8
  store ptr %18, ptr %aligned_alloc_ptr_14, align 8
  %19 = load ptr, ptr %block_head, align 8
  %20 = load i64, ptr %size, align 8
  %add.ptr15 = getelementptr inbounds i8, ptr %19, i64 %20
  %21 = load i64, ptr %bytes.addr, align 8
  %idx.neg = sub i64 0, %21
  %add.ptr16 = getelementptr inbounds i8, ptr %add.ptr15, i64 %idx.neg
  %unaligned_alloc_ptr_17 = getelementptr inbounds %"class.rocksdb::Arena", ptr %this1, i32 0, i32 7
  store ptr %add.ptr16, ptr %unaligned_alloc_ptr_17, align 16
  %unaligned_alloc_ptr_18 = getelementptr inbounds %"class.rocksdb::Arena", ptr %this1, i32 0, i32 7
  %22 = load ptr, ptr %unaligned_alloc_ptr_18, align 16
  store ptr %22, ptr %retval, align 8
  br label %return

return:                                           ; preds = %if.else, %if.then12, %if.then
  %23 = load ptr, ptr %retval, align 8
  ret ptr %23
}