; Function Attrs: mustprogress uwtable
define noundef nonnull ptr @_ZN7rocksdb5Arena16AllocateFallbackEmb(ptr noundef nonnull align 16 dereferenceable(2288) %this, i64 noundef %bytes, i1 noundef zeroext %aligned) local_unnamed_addr #1 align 2 {
entry:
  %kBlockSize = getelementptr inbounds i8, ptr %this, i64 2064
  %0 = load i64, ptr %kBlockSize, align 16
  %div14 = lshr i64 %0, 2
  %cmp = icmp ult i64 %div14, %bytes
  br i1 %cmp, label %if.then, label %if.end

if.then:                                          ; preds = %entry
  %irregular_block_num = getelementptr inbounds i8, ptr %this, i64 2232
  %1 = load i64, ptr %irregular_block_num, align 8
  %inc = add i64 %1, 1
  store i64 %inc, ptr %irregular_block_num, align 8
  %call = tail call noundef ptr @_ZN7rocksdb5Arena16AllocateNewBlockEm(ptr noundef nonnull align 16 dereferenceable(2288) %this, i64 noundef %bytes)
  br label %return

if.end:                                           ; preds = %entry
  %hugetlb_size_ = getelementptr inbounds i8, ptr %this, i64 2264
  %2 = load i64, ptr %hugetlb_size_, align 8
  %cmp2.not = icmp eq i64 %2, 0
  br i1 %cmp2.not, label %if.then7, label %if.end6

if.end6:                                          ; preds = %if.end
  %call5 = tail call noundef ptr @_ZN7rocksdb5Arena20AllocateFromHugePageEm(ptr noundef nonnull align 16 dereferenceable(2288) %this, i64 noundef %2)
  %tobool.not = icmp eq ptr %call5, null
  br i1 %tobool.not, label %if.end6.if.then7_crit_edge, label %if.end10

if.end6.if.then7_crit_edge:                       ; preds = %if.end6
  %.pre = load i64, ptr %kBlockSize, align 16
  br label %if.then7

if.then7:                                         ; preds = %if.end6.if.then7_crit_edge, %if.end
  %3 = phi i64 [ %.pre, %if.end6.if.then7_crit_edge ], [ %0, %if.end ]
  %call9 = tail call noundef ptr @_ZN7rocksdb5Arena16AllocateNewBlockEm(ptr noundef nonnull align 16 dereferenceable(2288) %this, i64 noundef %3)
  br label %if.end10

if.end10:                                         ; preds = %if.then7, %if.end6
  %size.1 = phi i64 [ %2, %if.end6 ], [ %3, %if.then7 ]
  %block_head.1 = phi ptr [ %call5, %if.end6 ], [ %call9, %if.then7 ]
  %sub = sub i64 %size.1, %bytes
  %alloc_bytes_remaining_ = getelementptr inbounds i8, ptr %this, i64 2256
  store i64 %sub, ptr %alloc_bytes_remaining_, align 16
  br i1 %aligned, label %if.then12, label %if.else

if.then12:                                        ; preds = %if.end10
  %add.ptr = getelementptr inbounds i8, ptr %block_head.1, i64 %bytes
  %aligned_alloc_ptr_ = getelementptr inbounds i8, ptr %this, i64 2248
  store ptr %add.ptr, ptr %aligned_alloc_ptr_, align 8
  %add.ptr13 = getelementptr inbounds i8, ptr %block_head.1, i64 %size.1
  %unaligned_alloc_ptr_ = getelementptr inbounds i8, ptr %this, i64 2240
  store ptr %add.ptr13, ptr %unaligned_alloc_ptr_, align 16
  br label %return

if.else:                                          ; preds = %if.end10
  %aligned_alloc_ptr_14 = getelementptr inbounds i8, ptr %this, i64 2248
  store ptr %block_head.1, ptr %aligned_alloc_ptr_14, align 8
  %add.ptr15 = getelementptr inbounds i8, ptr %block_head.1, i64 %size.1
  %idx.neg = sub nsw i64 0, %bytes
  %add.ptr16 = getelementptr inbounds i8, ptr %add.ptr15, i64 %idx.neg
  %unaligned_alloc_ptr_17 = getelementptr inbounds i8, ptr %this, i64 2240
  store ptr %add.ptr16, ptr %unaligned_alloc_ptr_17, align 16
  br label %return

return:                                           ; preds = %if.else, %if.then12, %if.then
  %retval.0 = phi ptr [ %call, %if.then ], [ %block_head.1, %if.then12 ], [ %add.ptr16, %if.else ]
  ret ptr %retval.0
}